; Function Attrs: nounwind uwtable
define range(i32 0, 5) i32 @ossl_statem_client_post_process_message(ptr noundef %0, i32 noundef %1) local_unnamed_addr #0 {
  %3 = getelementptr inbounds nuw i8, ptr %0, i64 172
  %4 = load i32, ptr %3, align 4, !tbaa !75
  switch i32 %4, label %5 [
    i32 4, label %6
    i32 5, label %6
    i32 43, label %8
    i32 8, label %8
  ]

5:                                                ; preds = %2
  tail call void @ERR_new() #8
  tail call void @ERR_set_debug(ptr noundef nonnull @.str, i32 noundef 1152, ptr noundef nonnull @__func__.ossl_statem_client_post_process_message) #8
  tail call void (ptr, i32, i32, ptr, ...) @ossl_statem_fatal(ptr noundef nonnull %0, i32 noundef 80, i32 noundef 786691, ptr noundef null) #8
  br label %10

6:                                                ; preds = %2, %2
  %7 = tail call i32 @tls_post_process_server_certificate(ptr noundef nonnull %0, i32 poison)
  br label %10

8:                                                ; preds = %2, %2
  %9 = tail call i32 @tls_prepare_client_certificate(ptr noundef nonnull %0, i32 noundef %1)
  br label %10

10:                                               ; preds = %8, %6, %5
  %.0 = phi i32 [ 0, %5 ], [ %9, %8 ], [ %7, %6 ]
  ret i32 %.0
}